target datalayout = "e-m:e-p270:32:32-p271:32:32-p272:64:64-i64:64-i128:128-f80:128-n8:16:32:64-S128"
target triple = "x86_64-pc-linux-gnu"

%struct.pointf_s = type { double, double }
%struct.Agobj_s = type { %struct.Agtag_s, ptr }
%struct.Agtag_s = type { i32, i64 }
%struct.Agrec_s = type { ptr, ptr }
%struct.Agedgeinfo_t = type { %struct.Agrec_s, ptr, %struct.port, %struct.port, ptr, ptr, ptr, ptr, i8, i8, i8, i8, i8, ptr, ptr, double, double, %struct.Ppoly_t, i8, i8, i16, i32, i32, i32, i16, i32, ptr }
%struct.port = type { %struct.pointf_s, double, ptr, i8, i8, i8, i8, i8, i8, ptr }
%struct.Ppoly_t = type { ptr, i64 }
%struct.Agedge_s = type { %struct.Agobj_s, %struct.dtlink_s_, %struct.dtlink_s_, ptr }
%struct.dtlink_s_ = type { ptr, %union.anon }
%union.anon = type { ptr }

@.str = private unnamed_addr constant [62 x i8] c"getsplinepoints: no spline points available for edge (%s,%s)\0A\00", align 1

; Function Attrs: nounwind uwtable
define ptr @getsplinepoints(ptr noundef %0) #0 {
  %2 = alloca ptr, align 8
  %3 = alloca ptr, align 8
  %4 = alloca ptr, align 8
  store ptr %0, ptr %2, align 8, !tbaa !61
  call void @llvm.lifetime.start.p0(i64 8, ptr %3) #12
  call void @llvm.lifetime.start.p0(i64 8, ptr %4) #12
  %5 = load ptr, ptr %2, align 8, !tbaa !61
  store ptr %5, ptr %3, align 8, !tbaa !61
  br label %6

6:                                                ; preds = %24, %1
  %7 = load ptr, ptr %3, align 8, !tbaa !61
  %8 = getelementptr inbounds nuw %struct.Agobj_s, ptr %7, i32 0, i32 1
  %9 = load ptr, ptr %8, align 8, !tbaa !32
  %10 = getelementptr inbounds nuw %struct.Agedgeinfo_t, ptr %9, i32 0, i32 1
  %11 = load ptr, ptr %10, align 8, !tbaa !71
  store ptr %11, ptr %4, align 8, !tbaa !191
  %12 = icmp ne ptr %11, null
  br i1 %12, label %21, label %13

13:                                               ; preds = %6
  %14 = load ptr, ptr %3, align 8, !tbaa !61
  %15 = getelementptr inbounds nuw %struct.Agobj_s, ptr %14, i32 0, i32 1
  %16 = load ptr, ptr %15, align 8, !tbaa !32
  %17 = getelementptr inbounds nuw %struct.Agedgeinfo_t, ptr %16, i32 0, i32 8
  %18 = load i8, ptr %17, align 8, !tbaa !69
  %19 = sext i8 %18 to i32
  %20 = icmp ne i32 %19, 0
  br label %21

21:                                               ; preds = %13, %6
  %22 = phi i1 [ false, %6 ], [ %20, %13 ]
  br i1 %22, label %23, label %30

23:                                               ; preds = %21
  br label %24

24:                                               ; preds = %23
  %25 = load ptr, ptr %3, align 8, !tbaa !61
  %26 = getelementptr inbounds nuw %struct.Agobj_s, ptr %25, i32 0, i32 1
  %27 = load ptr, ptr %26, align 8, !tbaa !32
  %28 = getelementptr inbounds nuw %struct.Agedgeinfo_t, ptr %27, i32 0, i32 13
  %29 = load ptr, ptr %28, align 8, !tbaa !63
  store ptr %29, ptr %3, align 8, !tbaa !61
  br label %6, !llvm.loop !200

30:                                               ; preds = %21
  %31 = load ptr, ptr %4, align 8, !tbaa !191
  %32 = icmp eq ptr %31, null
  br i1 %32, label %33, label %64

33:                                               ; preds = %30
  %34 = load ptr, ptr %2, align 8, !tbaa !61
  %35 = getelementptr inbounds nuw %struct.Agobj_s, ptr %34, i32 0, i32 0
  %36 = load i32, ptr %35, align 8
  %37 = and i32 %36, 3
  %38 = icmp eq i32 %37, 3
  br i1 %38, label %39, label %41

39:                                               ; preds = %33
  %40 = load ptr, ptr %2, align 8, !tbaa !61
  br label %44

41:                                               ; preds = %33
  %42 = load ptr, ptr %2, align 8, !tbaa !61
  %43 = getelementptr inbounds %struct.Agedge_s, ptr %42, i64 1
  br label %44

44:                                               ; preds = %41, %39
  %45 = phi ptr [ %40, %39 ], [ %43, %41 ]
  %46 = getelementptr inbounds nuw %struct.Agedge_s, ptr %45, i32 0, i32 3
  %47 = load ptr, ptr %46, align 8, !tbaa !88
  %48 = call ptr @agnameof(ptr noundef %47)
  %49 = load ptr, ptr %2, align 8, !tbaa !61
  %50 = getelementptr inbounds nuw %struct.Agobj_s, ptr %49, i32 0, i32 0
  %51 = load i32, ptr %50, align 8
  %52 = and i32 %51, 3
  %53 = icmp eq i32 %52, 2
  br i1 %53, label %54, label %56

54:                                               ; preds = %44
  %55 = load ptr, ptr %2, align 8, !tbaa !61
  br label %59

56:                                               ; preds = %44
  %57 = load ptr, ptr %2, align 8, !tbaa !61
  %58 = getelementptr inbounds %struct.Agedge_s, ptr %57, i64 -1
  br label %59

59:                                               ; preds = %56, %54
  %60 = phi ptr [ %55, %54 ], [ %58, %56 ]
  %61 = getelementptr inbounds nuw %struct.Agedge_s, ptr %60, i32 0, i32 3
  %62 = load ptr, ptr %61, align 8, !tbaa !88
  %63 = call ptr @agnameof(ptr noundef %62)
  call void (ptr, ...) @agerrorf(ptr noundef @.str, ptr noundef %48, ptr noundef %63)
  br label %64

64:                                               ; preds = %59, %30
  %65 = load ptr, ptr %4, align 8, !tbaa !191
  call void @llvm.lifetime.end.p0(i64 8, ptr %4) #12
  call void @llvm.lifetime.end.p0(i64 8, ptr %3) #12
  ret ptr %65
}