; Function Attrs: nounwind uwtable
define ptr @getsplinepoints(ptr noundef readonly captures(none) %0) local_unnamed_addr #0 {
  %2 = getelementptr inbounds nuw i8, ptr %0, i64 16
  %3 = load ptr, ptr %2, align 8, !tbaa !9
  %4 = getelementptr inbounds nuw i8, ptr %3, i64 16
  %5 = load ptr, ptr %4, align 8, !tbaa !55
  %cond15 = icmp eq ptr %5, null
  br i1 %cond15, label %.lr.ph, label %.loopexit

.lr.ph:                                           ; preds = %1, %9
  %6 = phi ptr [ %13, %9 ], [ %3, %1 ]
  %7 = getelementptr inbounds nuw i8, ptr %6, i64 152
  %8 = load i8, ptr %7, align 8, !tbaa !53
  %.not12 = icmp eq i8 %8, 0
  br i1 %.not12, label %.critedge, label %9

9:                                                ; preds = %.lr.ph
  %10 = getelementptr inbounds nuw i8, ptr %6, i64 160
  %11 = load ptr, ptr %10, align 8, !tbaa !46
  %12 = getelementptr inbounds nuw i8, ptr %11, i64 16
  %13 = load ptr, ptr %12, align 8, !tbaa !9
  %14 = getelementptr inbounds nuw i8, ptr %13, i64 16
  %15 = load ptr, ptr %14, align 8, !tbaa !55
  %cond = icmp eq ptr %15, null
  br i1 %cond, label %.lr.ph, label %.loopexit, !llvm.loop !164

.critedge:                                        ; preds = %.lr.ph
  %16 = load i32, ptr %0, align 8
  %17 = and i32 %16, 3
  %18 = icmp eq i32 %17, 3
  %.idx = select i1 %18, i64 0, i64 64
  %19 = getelementptr inbounds nuw i8, ptr %0, i64 %.idx
  %20 = getelementptr inbounds nuw i8, ptr %19, i64 56
  %21 = load ptr, ptr %20, align 8, !tbaa !65
  %22 = tail call ptr @agnameof(ptr noundef %21) #17
  %23 = load i32, ptr %0, align 8
  %24 = and i32 %23, 3
  %25 = icmp eq i32 %24, 2
  %.idx13 = select i1 %25, i64 0, i64 -64
  %26 = getelementptr inbounds i8, ptr %0, i64 %.idx13
  %27 = getelementptr inbounds nuw i8, ptr %26, i64 56
  %28 = load ptr, ptr %27, align 8, !tbaa !65
  %29 = tail call ptr @agnameof(ptr noundef %28) #17
  tail call void (ptr, ...) @agerrorf(ptr noundef nonnull @.str, ptr noundef %22, ptr noundef %29) #17
  br label %.loopexit

.loopexit:                                        ; preds = %9, %1, %.critedge
  %30 = phi ptr [ null, %.critedge ], [ %5, %1 ], [ %15, %9 ]
  ret ptr %30
}